; Function Attrs: nounwind uwtable
define internal void @ReleaseAuxProcessResourcesCallback(i32 noundef %0, i64 %1) #0 {
  %3 = icmp eq i32 %0, 0
  %4 = load ptr, ptr @AuxProcessResourceOwner, align 8
  tail call fastcc void @ResourceOwnerReleaseInternal(ptr noundef %4, i32 noundef 1, i1 noundef zeroext %3, i1 noundef zeroext true)
  %5 = load ptr, ptr @AuxProcessResourceOwner, align 8
  tail call fastcc void @ResourceOwnerReleaseInternal(ptr noundef %5, i32 noundef 2, i1 noundef zeroext %3, i1 noundef zeroext true)
  %6 = load ptr, ptr @AuxProcessResourceOwner, align 8
  tail call fastcc void @ResourceOwnerReleaseInternal(ptr noundef %6, i32 noundef 3, i1 noundef zeroext %3, i1 noundef zeroext true)
  %7 = load ptr, ptr @AuxProcessResourceOwner, align 8
  %8 = getelementptr inbounds nuw i8, ptr %7, i64 32
  store i8 0, ptr %8, align 8
  %9 = getelementptr inbounds nuw i8, ptr %7, i64 33
  store i8 0, ptr %9, align 1
  ret void
}